target datalayout = "e-m:e-p270:32:32-p271:32:32-p272:64:64-i64:64-i128:128-f80:128-n8:16:32:64-S128"
target triple = "x86_64-pc-linux-gnu"

%struct.mbedtls_hmac_drbg_context = type { %struct.mbedtls_md_context_t, [64 x i8], i32, i64, i32, i32, ptr, ptr }
%struct.mbedtls_md_context_t = type { ptr, ptr, ptr }

; Function Attrs: nounwind uwtable
define hidden i32 @mbedtls_hmac_drbg_seed_buf(ptr noundef %0, ptr noundef %1, ptr noundef %2, i64 noundef %3) #0 {
  %5 = alloca i32, align 4
  %6 = alloca ptr, align 8
  %7 = alloca ptr, align 8
  %8 = alloca ptr, align 8
  %9 = alloca i64, align 8
  %10 = alloca i32, align 4
  %11 = alloca i32, align 4
  store ptr %0, ptr %6, align 8, !tbaa !3
  store ptr %1, ptr %7, align 8, !tbaa !22
  store ptr %2, ptr %8, align 8, !tbaa !14
  store i64 %3, ptr %9, align 8, !tbaa !16
  call void @llvm.lifetime.start.p0(i64 4, ptr %10) #7
  store i32 -110, ptr %10, align 4, !tbaa !19
  %12 = load ptr, ptr %6, align 8, !tbaa !3
  %13 = getelementptr inbounds nuw %struct.mbedtls_hmac_drbg_context, ptr %12, i32 0, i32 0
  %14 = load ptr, ptr %7, align 8, !tbaa !22
  %15 = call i32 @mbedtls_md_setup(ptr noundef %13, ptr noundef %14, i32 noundef 1)
  store i32 %15, ptr %10, align 4, !tbaa !19
  %16 = icmp ne i32 %15, 0
  br i1 %16, label %17, label %19

17:                                               ; preds = %4
  %18 = load i32, ptr %10, align 4, !tbaa !19
  store i32 %18, ptr %5, align 4
  store i32 1, ptr %11, align 4
  br label %47

19:                                               ; preds = %4
  %20 = load ptr, ptr %6, align 8, !tbaa !3
  %21 = getelementptr inbounds nuw %struct.mbedtls_hmac_drbg_context, ptr %20, i32 0, i32 0
  %22 = load ptr, ptr %6, align 8, !tbaa !3
  %23 = getelementptr inbounds nuw %struct.mbedtls_hmac_drbg_context, ptr %22, i32 0, i32 1
  %24 = getelementptr inbounds [64 x i8], ptr %23, i64 0, i64 0
  %25 = load ptr, ptr %7, align 8, !tbaa !22
  %26 = call zeroext i8 @mbedtls_md_get_size(ptr noundef %25)
  %27 = zext i8 %26 to i64
  %28 = call i32 @mbedtls_md_hmac_starts(ptr noundef %21, ptr noundef %24, i64 noundef %27)
  store i32 %28, ptr %10, align 4, !tbaa !19
  %29 = icmp ne i32 %28, 0
  br i1 %29, label %30, label %32

30:                                               ; preds = %19
  %31 = load i32, ptr %10, align 4, !tbaa !19
  store i32 %31, ptr %5, align 4
  store i32 1, ptr %11, align 4
  br label %47

32:                                               ; preds = %19
  %33 = load ptr, ptr %6, align 8, !tbaa !3
  %34 = getelementptr inbounds nuw %struct.mbedtls_hmac_drbg_context, ptr %33, i32 0, i32 1
  %35 = getelementptr inbounds [64 x i8], ptr %34, i64 0, i64 0
  %36 = load ptr, ptr %7, align 8, !tbaa !22
  %37 = call zeroext i8 @mbedtls_md_get_size(ptr noundef %36)
  %38 = zext i8 %37 to i64
  call void @llvm.memset.p0.i64(ptr align 8 %35, i8 1, i64 %38, i1 false)
  %39 = load ptr, ptr %6, align 8, !tbaa !3
  %40 = load ptr, ptr %8, align 8, !tbaa !14
  %41 = load i64, ptr %9, align 8, !tbaa !16
  %42 = call i32 @mbedtls_hmac_drbg_update(ptr noundef %39, ptr noundef %40, i64 noundef %41)
  store i32 %42, ptr %10, align 4, !tbaa !19
  %43 = icmp ne i32 %42, 0
  br i1 %43, label %44, label %46

44:                                               ; preds = %32
  %45 = load i32, ptr %10, align 4, !tbaa !19
  store i32 %45, ptr %5, align 4
  store i32 1, ptr %11, align 4
  br label %47

46:                                               ; preds = %32
  store i32 0, ptr %5, align 4
  store i32 1, ptr %11, align 4
  br label %47

47:                                               ; preds = %46, %44, %30, %17
  call void @llvm.lifetime.end.p0(i64 4, ptr %10) #7
  %48 = load i32, ptr %5, align 4
  ret i32 %48
}