; Function Attrs: nounwind uwtable
define hidden i32 @mbedtls_hmac_drbg_seed_buf(ptr noundef %0, ptr noundef %1, ptr noundef %2, i64 noundef %3) local_unnamed_addr #2 {
  %5 = tail call i32 @mbedtls_md_setup(ptr noundef %0, ptr noundef %1, i32 noundef 1) #12
  %.not = icmp eq i32 %5, 0
  br i1 %.not, label %6, label %15

6:                                                ; preds = %4
  %7 = getelementptr inbounds nuw i8, ptr %0, i64 24
  %8 = tail call zeroext i8 @mbedtls_md_get_size(ptr noundef %1) #12
  %9 = zext i8 %8 to i64
  %10 = tail call i32 @mbedtls_md_hmac_starts(ptr noundef %0, ptr noundef nonnull %7, i64 noundef %9) #12
  %.not16 = icmp eq i32 %10, 0
  br i1 %.not16, label %11, label %15

11:                                               ; preds = %6
  %12 = tail call zeroext i8 @mbedtls_md_get_size(ptr noundef %1) #12
  %13 = zext i8 %12 to i64
  tail call void @llvm.memset.p0.i64(ptr nonnull align 8 %7, i8 1, i64 %13, i1 false)
  %14 = tail call i32 @mbedtls_hmac_drbg_update(ptr noundef nonnull %0, ptr noundef %2, i64 noundef %3)
  br label %15

15:                                               ; preds = %11, %6, %4
  %.0 = phi i32 [ %5, %4 ], [ %10, %6 ], [ %14, %11 ]
  ret i32 %.0
}